target datalayout = "e-m:e-p270:32:32-p271:32:32-p272:64:64-i64:64-i128:128-f80:128-n8:16:32:64-S128"
target triple = "x86_64-pc-linux-gnu"

%struct.ParseState = type { ptr, ptr, i32, i32, ptr, ptr, ptr, ptr, ptr, ptr, i8, ptr, ptr, ptr, ptr, ptr, ptr, i8, ptr, i32, i32, ptr, ptr, i8, i8, ptr, i8, i8, i8, i8, i8, ptr, ptr, ptr, ptr, ptr, ptr }
%struct.Expr = type { i32 }
%struct.MergeSupportFunc = type { %struct.Expr, i32, i32, i32 }

@.str.41 = private unnamed_addr constant [13 x i8] c"parse_expr.c\00", align 1
@.str.88 = private unnamed_addr constant [73 x i8] c"MERGE_ACTION() can only be used in the RETURNING list of a MERGE command\00", align 1
@__func__.transformMergeSupportFunc = private unnamed_addr constant [26 x i8] c"transformMergeSupportFunc\00", align 1

; Function Attrs: nounwind uwtable
define internal ptr @transformMergeSupportFunc(ptr noundef %0, ptr noundef %1) #0 {
  %3 = alloca ptr, align 8
  %4 = alloca ptr, align 8
  %5 = alloca ptr, align 8
  store ptr %0, ptr %3, align 8
  store ptr %1, ptr %4, align 8
  %6 = load ptr, ptr %3, align 8
  %7 = getelementptr inbounds nuw %struct.ParseState, ptr %6, i32 0, i32 19
  %8 = load i32, ptr %7, align 8
  %9 = icmp ne i32 %8, 25
  br i1 %9, label %10, label %49

10:                                               ; preds = %2
  call void @llvm.lifetime.start.p0(i64 8, ptr %5) #8
  %11 = load ptr, ptr %3, align 8
  %12 = getelementptr inbounds nuw %struct.ParseState, ptr %11, i32 0, i32 0
  %13 = load ptr, ptr %12, align 8
  store ptr %13, ptr %5, align 8
  br label %14

14:                                               ; preds = %24, %10
  %15 = load ptr, ptr %5, align 8
  %16 = icmp ne ptr %15, null
  br i1 %16, label %17, label %22

17:                                               ; preds = %14
  %18 = load ptr, ptr %5, align 8
  %19 = getelementptr inbounds nuw %struct.ParseState, ptr %18, i32 0, i32 19
  %20 = load i32, ptr %19, align 8
  %21 = icmp ne i32 %20, 25
  br label %22

22:                                               ; preds = %17, %14
  %23 = phi i1 [ false, %14 ], [ %21, %17 ]
  br i1 %23, label %24, label %28

24:                                               ; preds = %22
  %25 = load ptr, ptr %5, align 8
  %26 = getelementptr inbounds nuw %struct.ParseState, ptr %25, i32 0, i32 0
  %27 = load ptr, ptr %26, align 8
  store ptr %27, ptr %5, align 8
  br label %14, !llvm.loop !16

28:                                               ; preds = %22
  %29 = load ptr, ptr %5, align 8
  %30 = icmp ne ptr %29, null
  br i1 %30, label %48, label %31

31:                                               ; preds = %28
  br label %32

32:                                               ; preds = %31
  br i1 true, label %33, label %35

33:                                               ; preds = %32
  %34 = call zeroext i1 @errstart_cold(i32 noundef 21, ptr noundef null) #9
  br i1 %34, label %37, label %45

35:                                               ; preds = %32
  %36 = call zeroext i1 @errstart(i32 noundef 21, ptr noundef null)
  br i1 %36, label %37, label %45

37:                                               ; preds = %35, %33
  %38 = call i32 @errcode(i32 noundef 16801924)
  %39 = call i32 (ptr, ...) @errmsg(ptr noundef @.str.88)
  %40 = load ptr, ptr %3, align 8
  %41 = load ptr, ptr %4, align 8
  %42 = getelementptr inbounds nuw %struct.MergeSupportFunc, ptr %41, i32 0, i32 3
  %43 = load i32, ptr %42, align 4
  %44 = call i32 @parser_errposition(ptr noundef %40, i32 noundef %43)
  call void @errfinish(ptr noundef @.str.41, i32 noundef 1394, ptr noundef @__func__.transformMergeSupportFunc)
  br label %45

45:                                               ; preds = %37, %35, %33
  unreachable

46:                                               ; No predecessors!
  br label %47

47:                                               ; preds = %46
  br label %48

48:                                               ; preds = %47, %28
  call void @llvm.lifetime.end.p0(i64 8, ptr %5) #8
  br label %49

49:                                               ; preds = %48, %2
  %50 = load ptr, ptr %4, align 8
  ret ptr %50
}