; Function Attrs: nounwind uwtable
define internal fastcc noundef nonnull ptr @transformMergeSupportFunc(ptr noundef %0, ptr noundef nonnull readonly returned captures(ret: address, provenance) %1) unnamed_addr #0 {
  %3 = getelementptr inbounds nuw i8, ptr %0, i64 144
  %4 = load i32, ptr %3, align 8
  %.not = icmp eq i32 %4, 25
  br i1 %.not, label %.critedge, label %.preheader

.preheader:                                       ; preds = %2, %5
  %.0.in = phi ptr [ %.0, %5 ], [ %0, %2 ]
  %.0 = load ptr, ptr %.0.in, align 8
  %.not9 = icmp eq ptr %.0, null
  br i1 %.not9, label %.critedge11, label %5

5:                                                ; preds = %.preheader
  %6 = getelementptr inbounds nuw i8, ptr %.0, i64 144
  %7 = load i32, ptr %6, align 8
  %.not10 = icmp eq i32 %7, 25
  br i1 %.not10, label %.critedge, label %.preheader, !llvm.loop !9

.critedge11:                                      ; preds = %.preheader
  %8 = tail call zeroext i1 @errstart_cold(i32 noundef 21, ptr noundef null) #10
  tail call void @llvm.assume(i1 %8)
  %9 = tail call i32 @errcode(i32 noundef 16801924) #9
  %10 = tail call i32 (ptr, ...) @errmsg(ptr noundef nonnull @.str.88) #9
  %11 = getelementptr inbounds nuw i8, ptr %1, i64 12
  %12 = load i32, ptr %11, align 4
  %13 = tail call i32 @parser_errposition(ptr noundef %0, i32 noundef %12) #9
  tail call void @errfinish(ptr noundef nonnull @.str.41, i32 noundef 1394, ptr noundef nonnull @__func__.transformMergeSupportFunc) #9
  unreachable

.critedge:                                        ; preds = %5, %2
  ret ptr %1
}